target datalayout = "e-m:e-p270:32:32-p271:32:32-p272:64:64-i64:64-i128:128-f80:128-n8:16:32:64-S128"
target triple = "x86_64-pc-linux-gnu"

%struct.ARKodeARKStepMemRec = type { ptr, ptr, i32, i32, i32, i32, i32, i32, ptr, ptr, ptr, ptr, ptr, ptr, i32, i32, i32, i32, ptr, ptr, ptr, ptr, i32, ptr, double, double, double, double, i32, double, double, double, double, double, double, i32, i64, i32, i32, i32, ptr, ptr, ptr, ptr, ptr, ptr, i32, ptr, ptr, ptr, ptr, ptr, ptr, i32, i32, i64, i64, i64, i64, i64, ptr, ptr, i32, i32, i32, double, double, ptr, i32, ptr, ptr }
%struct.ARKodeMemRec = type { ptr, double, ptr, i32, i32, double, double, ptr, i32, double, ptr, i32, i32, ptr, ptr, i32, ptr, ptr, i32, ptr, ptr, ptr, ptr, ptr, ptr, ptr, ptr, ptr, ptr, ptr, ptr, ptr, ptr, ptr, i32, ptr, ptr, i32, ptr, i32, ptr, ptr, ptr, ptr, ptr, ptr, ptr, ptr, ptr, ptr, ptr, ptr, ptr, ptr, ptr, ptr, ptr, ptr, ptr, ptr, ptr, ptr, ptr, ptr, ptr, ptr, i32, ptr, ptr, ptr, ptr, ptr, ptr, ptr, i32, ptr, ptr, ptr, i32, ptr, ptr, ptr, ptr, ptr, ptr, ptr, i32, i32, i32, i32, double, double, double, double, double, double, double, double, double, double, i32, ptr, i64, i32, i32, i32, i32, i64, i64, i32, i64, i64, i64, i64, i64, i64, i64, double, double, double, double, double, i32, double, double, i32, i32, i32, i32, i32, i32, i32, i32, ptr, i32, ptr, ptr, ptr, ptr, i32, i32, i32 }

@__func__.arkStep_NlsResidual_MassFixed = private unnamed_addr constant [30 x i8] c"arkStep_NlsResidual_MassFixed\00", align 1

; Function Attrs: nounwind uwtable
define i32 @arkStep_NlsResidual_MassFixed(ptr noundef %0, ptr noundef %1, ptr noundef %2) #0 {
  %4 = alloca i32, align 4
  %5 = alloca ptr, align 8
  %6 = alloca ptr, align 8
  %7 = alloca ptr, align 8
  %8 = alloca ptr, align 8
  %9 = alloca ptr, align 8
  %10 = alloca i32, align 4
  %11 = alloca [3 x double], align 16
  %12 = alloca [3 x ptr], align 16
  %13 = alloca i32, align 4
  store ptr %0, ptr %5, align 8, !tbaa !34
  store ptr %1, ptr %6, align 8, !tbaa !34
  store ptr %2, ptr %7, align 8, !tbaa !36
  call void @llvm.lifetime.start.p0(i64 8, ptr %8) #4
  call void @llvm.lifetime.start.p0(i64 8, ptr %9) #4
  call void @llvm.lifetime.start.p0(i64 4, ptr %10) #4
  call void @llvm.lifetime.start.p0(i64 24, ptr %11) #4
  call void @llvm.lifetime.start.p0(i64 24, ptr %12) #4
  %14 = load ptr, ptr %7, align 8, !tbaa !36
  %15 = call i32 @arkStep_AccessARKODEStepMem(ptr noundef %14, ptr noundef @__func__.arkStep_NlsResidual_MassFixed, ptr noundef %8, ptr noundef %9)
  store i32 %15, ptr %10, align 4, !tbaa !10
  %16 = load i32, ptr %10, align 4, !tbaa !10
  %17 = icmp ne i32 %16, 0
  br i1 %17, label %18, label %20

18:                                               ; preds = %3
  %19 = load i32, ptr %10, align 4, !tbaa !10
  store i32 %19, ptr %4, align 4
  store i32 1, ptr %13, align 4
  br label %104

20:                                               ; preds = %3
  %21 = load ptr, ptr %9, align 8, !tbaa !20
  %22 = getelementptr inbounds nuw %struct.ARKodeARKStepMemRec, ptr %21, i32 0, i32 12
  %23 = load ptr, ptr %22, align 8, !tbaa !45
  %24 = load ptr, ptr %5, align 8, !tbaa !34
  %25 = load ptr, ptr %8, align 8, !tbaa !3
  %26 = getelementptr inbounds nuw %struct.ARKodeMemRec, ptr %25, i32 0, i32 75
  %27 = load ptr, ptr %26, align 8, !tbaa !46
  call void @N_VLinearSum(double noundef 1.000000e+00, ptr noundef %23, double noundef 1.000000e+00, ptr noundef %24, ptr noundef %27)
  %28 = load ptr, ptr %9, align 8, !tbaa !20
  %29 = getelementptr inbounds nuw %struct.ARKodeARKStepMemRec, ptr %28, i32 0, i32 23
  %30 = load ptr, ptr %29, align 8, !tbaa !33
  %31 = load ptr, ptr %8, align 8, !tbaa !3
  %32 = getelementptr inbounds nuw %struct.ARKodeMemRec, ptr %31, i32 0, i32 98
  %33 = load double, ptr %32, align 8, !tbaa !55
  %34 = load ptr, ptr %8, align 8, !tbaa !3
  %35 = getelementptr inbounds nuw %struct.ARKodeMemRec, ptr %34, i32 0, i32 75
  %36 = load ptr, ptr %35, align 8, !tbaa !46
  %37 = load ptr, ptr %9, align 8, !tbaa !20
  %38 = getelementptr inbounds nuw %struct.ARKodeARKStepMemRec, ptr %37, i32 0, i32 9
  %39 = load ptr, ptr %38, align 8, !tbaa !53
  %40 = load ptr, ptr %9, align 8, !tbaa !20
  %41 = getelementptr inbounds nuw %struct.ARKodeARKStepMemRec, ptr %40, i32 0, i32 16
  %42 = load i32, ptr %41, align 8, !tbaa !54
  %43 = sext i32 %42 to i64
  %44 = getelementptr inbounds ptr, ptr %39, i64 %43
  %45 = load ptr, ptr %44, align 8, !tbaa !34
  %46 = load ptr, ptr %8, align 8, !tbaa !3
  %47 = getelementptr inbounds nuw %struct.ARKodeMemRec, ptr %46, i32 0, i32 2
  %48 = load ptr, ptr %47, align 8, !tbaa !56
  %49 = call i32 %30(double noundef %33, ptr noundef %36, ptr noundef %45, ptr noundef %48)
  store i32 %49, ptr %10, align 4, !tbaa !10
  %50 = load ptr, ptr %9, align 8, !tbaa !20
  %51 = getelementptr inbounds nuw %struct.ARKodeARKStepMemRec, ptr %50, i32 0, i32 56
  %52 = load i64, ptr %51, align 8, !tbaa !57
  %53 = add nsw i64 %52, 1
  store i64 %53, ptr %51, align 8, !tbaa !57
  %54 = load i32, ptr %10, align 4, !tbaa !10
  %55 = icmp slt i32 %54, 0
  br i1 %55, label %56, label %57

56:                                               ; preds = %20
  store i32 -8, ptr %4, align 4
  store i32 1, ptr %13, align 4
  br label %104

57:                                               ; preds = %20
  %58 = load i32, ptr %10, align 4, !tbaa !10
  %59 = icmp sgt i32 %58, 0
  br i1 %59, label %60, label %61

60:                                               ; preds = %57
  store i32 9, ptr %4, align 4
  store i32 1, ptr %13, align 4
  br label %104

61:                                               ; preds = %57
  %62 = load ptr, ptr %9, align 8, !tbaa !20
  %63 = getelementptr inbounds nuw %struct.ARKodeARKStepMemRec, ptr %62, i32 0, i32 49
  %64 = load ptr, ptr %63, align 8, !tbaa !60
  %65 = load ptr, ptr %8, align 8, !tbaa !3
  %66 = load ptr, ptr %5, align 8, !tbaa !34
  %67 = load ptr, ptr %6, align 8, !tbaa !34
  %68 = call i32 %64(ptr noundef %65, ptr noundef %66, ptr noundef %67)
  store i32 %68, ptr %10, align 4, !tbaa !10
  %69 = load i32, ptr %10, align 4, !tbaa !10
  %70 = icmp ne i32 %69, 0
  br i1 %70, label %71, label %72

71:                                               ; preds = %61
  store i32 -18, ptr %4, align 4
  store i32 1, ptr %13, align 4
  br label %104

72:                                               ; preds = %61
  %73 = getelementptr inbounds [3 x double], ptr %11, i64 0, i64 0
  store double 1.000000e+00, ptr %73, align 16, !tbaa !35
  %74 = load ptr, ptr %6, align 8, !tbaa !34
  %75 = getelementptr inbounds [3 x ptr], ptr %12, i64 0, i64 0
  store ptr %74, ptr %75, align 16, !tbaa !34
  %76 = getelementptr inbounds [3 x double], ptr %11, i64 0, i64 1
  store double -1.000000e+00, ptr %76, align 8, !tbaa !35
  %77 = load ptr, ptr %9, align 8, !tbaa !20
  %78 = getelementptr inbounds nuw %struct.ARKodeARKStepMemRec, ptr %77, i32 0, i32 11
  %79 = load ptr, ptr %78, align 8, !tbaa !58
  %80 = getelementptr inbounds [3 x ptr], ptr %12, i64 0, i64 1
  store ptr %79, ptr %80, align 8, !tbaa !34
  %81 = load ptr, ptr %9, align 8, !tbaa !20
  %82 = getelementptr inbounds nuw %struct.ARKodeARKStepMemRec, ptr %81, i32 0, i32 24
  %83 = load double, ptr %82, align 8, !tbaa !59
  %84 = fneg double %83
  %85 = getelementptr inbounds [3 x double], ptr %11, i64 0, i64 2
  store double %84, ptr %85, align 16, !tbaa !35
  %86 = load ptr, ptr %9, align 8, !tbaa !20
  %87 = getelementptr inbounds nuw %struct.ARKodeARKStepMemRec, ptr %86, i32 0, i32 9
  %88 = load ptr, ptr %87, align 8, !tbaa !53
  %89 = load ptr, ptr %9, align 8, !tbaa !20
  %90 = getelementptr inbounds nuw %struct.ARKodeARKStepMemRec, ptr %89, i32 0, i32 16
  %91 = load i32, ptr %90, align 8, !tbaa !54
  %92 = sext i32 %91 to i64
  %93 = getelementptr inbounds ptr, ptr %88, i64 %92
  %94 = load ptr, ptr %93, align 8, !tbaa !34
  %95 = getelementptr inbounds [3 x ptr], ptr %12, i64 0, i64 2
  store ptr %94, ptr %95, align 16, !tbaa !34
  %96 = getelementptr inbounds [3 x double], ptr %11, i64 0, i64 0
  %97 = getelementptr inbounds [3 x ptr], ptr %12, i64 0, i64 0
  %98 = load ptr, ptr %6, align 8, !tbaa !34
  %99 = call i32 @N_VLinearCombination(i32 noundef 3, ptr noundef %96, ptr noundef %97, ptr noundef %98)
  store i32 %99, ptr %10, align 4, !tbaa !10
  %100 = load i32, ptr %10, align 4, !tbaa !10
  %101 = icmp ne i32 %100, 0
  br i1 %101, label %102, label %103

102:                                              ; preds = %72
  store i32 -28, ptr %4, align 4
  store i32 1, ptr %13, align 4
  br label %104

103:                                              ; preds = %72
  store i32 0, ptr %4, align 4
  store i32 1, ptr %13, align 4
  br label %104

104:                                              ; preds = %103, %102, %71, %60, %56, %18
  call void @llvm.lifetime.end.p0(i64 24, ptr %12) #4
  call void @llvm.lifetime.end.p0(i64 24, ptr %11) #4
  call void @llvm.lifetime.end.p0(i64 4, ptr %10) #4
  call void @llvm.lifetime.end.p0(i64 8, ptr %9) #4
  call void @llvm.lifetime.end.p0(i64 8, ptr %8) #4
  %105 = load i32, ptr %4, align 4
  ret i32 %105
}